; ModuleID = '23/1248.c'
source_filename = "23/1248.c"
target datalayout = "e-m:e-p270:32:32-p271:32:32-p272:64:64-i64:64-f80:128-n8:16:32:64-S128"
target triple = "x86_64-pc-linux-gnu"

@.str = private unnamed_addr constant [4 x i8] c"%s \00", align 1
@.str.1 = private unnamed_addr constant [3 x i8] c"%s\00", align 1

; Function Attrs: noinline nounwind uwtable
define dso_local void @main() #0 {
  %1 = alloca i32, align 4
  %2 = alloca i32, align 4
  %3 = alloca i32, align 4
  %4 = alloca [100 x i8], align 16
  %5 = alloca [100 x [100 x i8]], align 16
  %6 = alloca [100 x i8], align 16
  store i32 0, i32* %1, align 4
  store i32 0, i32* %2, align 4
  store i32 0, i32* %3, align 4
  %7 = getelementptr inbounds [100 x i8], [100 x i8]* %4, i64 0, i64 0
  %8 = call i32 (i8*, ...) bitcast (i32 (...)* @gets to i32 (i8*, ...)*)(i8* %7)
  br label %9

9:                                                ; preds = %45, %0
  %10 = load i32, i32* %1, align 4
  %11 = sext i32 %10 to i64
  %12 = getelementptr inbounds [100 x i8], [100 x i8]* %4, i64 0, i64 %11
  %13 = load i8, i8* %12, align 1
  %14 = sext i8 %13 to i32
  %15 = icmp ne i32 %14, 0
  br i1 %15, label %16, label %48

16:                                               ; preds = %9
  %17 = load i32, i32* %1, align 4
  %18 = sext i32 %17 to i64
  %19 = getelementptr inbounds [100 x i8], [100 x i8]* %4, i64 0, i64 %18
  %20 = load i8, i8* %19, align 1
  %21 = sext i8 %20 to i32
  %22 = icmp ne i32 %21, 32
  br i1 %22, label %23, label %33

23:                                               ; preds = %16
  %24 = load i32, i32* %1, align 4
  %25 = sext i32 %24 to i64
  %26 = getelementptr inbounds [100 x i8], [100 x i8]* %4, i64 0, i64 %25
  %27 = load i8, i8* %26, align 1
  %28 = load i32, i32* %2, align 4
  %29 = sext i32 %28 to i64
  %30 = getelementptr inbounds [100 x i8], [100 x i8]* %6, i64 0, i64 %29
  store i8 %27, i8* %30, align 1
  %31 = load i32, i32* %2, align 4
  %32 = add nsw i32 %31, 1
  store i32 %32, i32* %2, align 4
  br label %45

33:                                               ; preds = %16
  %34 = load i32, i32* %2, align 4
  %35 = sext i32 %34 to i64
  %36 = getelementptr inbounds [100 x i8], [100 x i8]* %6, i64 0, i64 %35
  store i8 0, i8* %36, align 1
  %37 = load i32, i32* %3, align 4
  %38 = sext i32 %37 to i64
  %39 = getelementptr inbounds [100 x [100 x i8]], [100 x [100 x i8]]* %5, i64 0, i64 %38
  %40 = getelementptr inbounds [100 x i8], [100 x i8]* %39, i64 0, i64 0
  %41 = getelementptr inbounds [100 x i8], [100 x i8]* %6, i64 0, i64 0
  %42 = call i8* @strcpy(i8* %40, i8* %41) #3
  %43 = load i32, i32* %3, align 4
  %44 = add nsw i32 %43, 1
  store i32 %44, i32* %3, align 4
  store i32 0, i32* %2, align 4
  br label %45

45:                                               ; preds = %33, %23
  %46 = load i32, i32* %1, align 4
  %47 = add nsw i32 %46, 1
  store i32 %47, i32* %1, align 4
  br label %9

48:                                               ; preds = %9
  %49 = load i32, i32* %2, align 4
  %50 = sext i32 %49 to i64
  %51 = getelementptr inbounds [100 x i8], [100 x i8]* %6, i64 0, i64 %50
  store i8 0, i8* %51, align 1
  %52 = load i32, i32* %3, align 4
  %53 = sext i32 %52 to i64
  %54 = getelementptr inbounds [100 x [100 x i8]], [100 x [100 x i8]]* %5, i64 0, i64 %53
  %55 = getelementptr inbounds [100 x i8], [100 x i8]* %54, i64 0, i64 0
  %56 = getelementptr inbounds [100 x i8], [100 x i8]* %6, i64 0, i64 0
  %57 = call i8* @strcpy(i8* %55, i8* %56) #3
  br label %58

58:                                               ; preds = %67, %48
  %59 = load i32, i32* %3, align 4
  %60 = icmp sgt i32 %59, 0
  br i1 %60, label %61, label %70

61:                                               ; preds = %58
  %62 = load i32, i32* %3, align 4
  %63 = sext i32 %62 to i64
  %64 = getelementptr inbounds [100 x [100 x i8]], [100 x [100 x i8]]* %5, i64 0, i64 %63
  %65 = getelementptr inbounds [100 x i8], [100 x i8]* %64, i64 0, i64 0
  %66 = call i32 (i8*, ...) @printf(i8* getelementptr inbounds ([4 x i8], [4 x i8]* @.str, i64 0, i64 0), i8* %65)
  br label %67

67:                                               ; preds = %61
  %68 = load i32, i32* %3, align 4
  %69 = add nsw i32 %68, -1
  store i32 %69, i32* %3, align 4
  br label %58

70:                                               ; preds = %58
  %71 = getelementptr inbounds [100 x [100 x i8]], [100 x [100 x i8]]* %5, i64 0, i64 0
  %72 = getelementptr inbounds [100 x i8], [100 x i8]* %71, i64 0, i64 0
  %73 = call i32 (i8*, ...) @printf(i8* getelementptr inbounds ([3 x i8], [3 x i8]* @.str.1, i64 0, i64 0), i8* %72)
  ret void
}

declare dso_local i32 @gets(...) #1

; Function Attrs: nounwind
declare dso_local i8* @strcpy(i8*, i8*) #2

declare dso_local i32 @printf(i8*, ...) #1


!llvm.module.flags = !{!0}
!llvm.ident = !{!1}

!0 = !{i32 1, !"wchar_size", i32 4}
!1 = !{!"clang version 10.0.0-4ubuntu1 "}
